; Function Attrs: nounwind uwtable
define hidden zeroext i1 @je_pages_purge_lazy(ptr noundef %0, i64 noundef %1) local_unnamed_addr #0 {
  %.b = load i1, ptr @pages_can_purge_lazy_runtime, align 1
  br i1 %.b, label %6, label %3

3:                                                ; preds = %2
  %4 = tail call i32 @madvise(ptr noundef %0, i64 noundef %1, i32 noundef 8) #8
  %5 = icmp ne i32 %4, 0
  br label %6

6:                                                ; preds = %2, %3
  %.0 = phi i1 [ %5, %3 ], [ true, %2 ]
  ret i1 %.0
}